; Function Attrs: nounwind uwtable
define internal range(i32 -1, 2) i32 @is_dead_weakref(ptr noundef readonly captures(none) %0, ptr readnone captures(none) %1) #0 {
  %3 = getelementptr i8, ptr %0, i64 8
  %.val7 = load ptr, ptr %3, align 8, !tbaa !9
  %.not.i = icmp eq ptr %.val7, @_PyWeakref_RefType
  br i1 %.not.i, label %PyObject_TypeCheck.exit.thread, label %PyObject_TypeCheck.exit

PyObject_TypeCheck.exit:                          ; preds = %2
  %4 = tail call i32 @PyType_IsSubtype(ptr noundef %.val7, ptr noundef nonnull @_PyWeakref_RefType) #3
  %.not10 = icmp eq i32 %4, 0
  br i1 %.not10, label %5, label %PyObject_TypeCheck.exit.thread

5:                                                ; preds = %PyObject_TypeCheck.exit
  %.val = load ptr, ptr %3, align 8, !tbaa !9
  %.not = icmp eq ptr %.val, @_PyWeakref_ProxyType
  %.not11 = icmp eq ptr %.val, @_PyWeakref_CallableProxyType
  %or.cond = or i1 %.not, %.not11
  br i1 %or.cond, label %PyObject_TypeCheck.exit.thread, label %6

6:                                                ; preds = %5
  %7 = load ptr, ptr @PyExc_TypeError, align 8, !tbaa !4
  tail call void @PyErr_SetString(ptr noundef %7, ptr noundef nonnull @.str.9) #3
  br label %_PyWeakref_IS_DEAD.exit

PyObject_TypeCheck.exit.thread:                   ; preds = %2, %5, %PyObject_TypeCheck.exit
  %8 = getelementptr i8, ptr %0, i64 16
  %.val8 = load ptr, ptr %8, align 8, !tbaa !39
  %9 = icmp eq ptr %.val8, @_Py_NoneStruct
  br i1 %9, label %_PyWeakref_IS_DEAD.exit, label %10

10:                                               ; preds = %PyObject_TypeCheck.exit.thread
  %.val.i = load i32, ptr %.val8, align 8, !tbaa !36
  %11 = icmp eq i32 %.val.i, 0
  %12 = zext i1 %11 to i32
  br label %_PyWeakref_IS_DEAD.exit

_PyWeakref_IS_DEAD.exit:                          ; preds = %10, %PyObject_TypeCheck.exit.thread, %6
  %.0 = phi i32 [ -1, %6 ], [ %12, %10 ], [ 1, %PyObject_TypeCheck.exit.thread ]
  ret i32 %.0
}